target datalayout = "e-m:e-p270:32:32-p271:32:32-p272:64:64-i64:64-i128:128-f80:128-n8:16:32:64-S128"
target triple = "x86_64-pc-linux-gnu"

%struct.IDAMemRec = type { double, ptr, ptr, i32, double, double, ptr, i32, ptr, ptr, i32, ptr, ptr, i32, i32, double, double, ptr, i32, i32, i32, ptr, ptr, i32, ptr, ptr, ptr, i32, double, i32, i32, double, ptr, ptr, i32, ptr, ptr, i32, i32, i32, double, ptr, ptr, [6 x ptr], [6 x double], [6 x double], [6 x double], [6 x double], [6 x double], ptr, ptr, ptr, ptr, ptr, ptr, ptr, ptr, ptr, ptr, ptr, ptr, ptr, ptr, ptr, [6 x ptr], ptr, ptr, ptr, ptr, [6 x ptr], ptr, ptr, ptr, ptr, ptr, ptr, ptr, ptr, ptr, ptr, ptr, ptr, ptr, ptr, [6 x ptr], ptr, ptr, ptr, ptr, ptr, double, ptr, ptr, i32, i32, i32, i32, i32, i32, i32, double, double, double, i32, double, i32, i32, i32, i32, double, double, double, double, double, double, double, double, double, double, double, double, double, double, i32, i32, i32, i32, i32, i64, double, i32, i64, i64, i64, i64, i64, i64, i64, i64, i64, i64, i64, i64, i64, i64, i64, i64, i64, i64, i64, i64, i64, i64, i64, i64, ptr, ptr, ptr, i32, i32, i32, i32, i32, i32, i32, i32, i32, i32, i32, i32, i32, ptr, ptr, ptr, ptr, ptr, ptr, i32, i32, i32, i32, i32, i32, double, double, double, ptr, i32, ptr, ptr, double, double, double, ptr, ptr, ptr, double, double, i32, i32, i64, ptr, i32, i32, ptr, i32 }
%struct.IDASpilsMemRec = type { i32, i32, double, i32, i32, double, double, double, i64, i64, i64, i64, i64, i64, i64, i64, i64, i64, i64, i64, ptr, ptr, ptr, ptr, ptr, ptr, ptr, i64, ptr, ptr, ptr, ptr, i32, ptr, ptr }
%struct.SptfqmrMemRec = type { i32, ptr, ptr, ptr, ptr, ptr, ptr, ptr, ptr, ptr, ptr }

; Function Attrs: nounwind uwtable
define internal i32 @IDASptfqmrInit(ptr noundef %0) #0 {
  %2 = alloca ptr, align 8
  %3 = alloca ptr, align 8
  %4 = alloca ptr, align 8
  store ptr %0, ptr %2, align 8, !tbaa !9
  call void @llvm.lifetime.start.p0(i64 8, ptr %3) #5
  call void @llvm.lifetime.start.p0(i64 8, ptr %4) #5
  %5 = load ptr, ptr %2, align 8, !tbaa !9
  %6 = getelementptr inbounds nuw %struct.IDAMemRec, ptr %5, i32 0, i32 176
  %7 = load ptr, ptr %6, align 8, !tbaa !53
  store ptr %7, ptr %3, align 8, !tbaa !31
  %8 = load ptr, ptr %3, align 8, !tbaa !31
  %9 = getelementptr inbounds nuw %struct.IDASpilsMemRec, ptr %8, i32 0, i32 26
  %10 = load ptr, ptr %9, align 8, !tbaa !52
  store ptr %10, ptr %4, align 8, !tbaa !3
  %11 = load ptr, ptr %3, align 8, !tbaa !31
  %12 = getelementptr inbounds nuw %struct.IDASpilsMemRec, ptr %11, i32 0, i32 11
  store i64 0, ptr %12, align 8, !tbaa !54
  %13 = load ptr, ptr %3, align 8, !tbaa !31
  %14 = getelementptr inbounds nuw %struct.IDASpilsMemRec, ptr %13, i32 0, i32 10
  store i64 0, ptr %14, align 8, !tbaa !55
  %15 = load ptr, ptr %3, align 8, !tbaa !31
  %16 = getelementptr inbounds nuw %struct.IDASpilsMemRec, ptr %15, i32 0, i32 9
  store i64 0, ptr %16, align 8, !tbaa !56
  %17 = load ptr, ptr %3, align 8, !tbaa !31
  %18 = getelementptr inbounds nuw %struct.IDASpilsMemRec, ptr %17, i32 0, i32 8
  store i64 0, ptr %18, align 8, !tbaa !57
  %19 = load ptr, ptr %3, align 8, !tbaa !31
  %20 = getelementptr inbounds nuw %struct.IDASpilsMemRec, ptr %19, i32 0, i32 12
  store i64 0, ptr %20, align 8, !tbaa !58
  %21 = load ptr, ptr %3, align 8, !tbaa !31
  %22 = getelementptr inbounds nuw %struct.IDASpilsMemRec, ptr %21, i32 0, i32 13
  store i64 0, ptr %22, align 8, !tbaa !59
  %23 = load ptr, ptr %3, align 8, !tbaa !31
  %24 = getelementptr inbounds nuw %struct.IDASpilsMemRec, ptr %23, i32 0, i32 29
  %25 = load ptr, ptr %24, align 8, !tbaa !40
  %26 = icmp ne ptr %25, null
  br i1 %26, label %27, label %32

27:                                               ; preds = %1
  %28 = load ptr, ptr %3, align 8, !tbaa !31
  %29 = getelementptr inbounds nuw %struct.IDASpilsMemRec, ptr %28, i32 0, i32 28
  %30 = load ptr, ptr %29, align 8, !tbaa !39
  %31 = icmp ne ptr %30, null
  br label %32

32:                                               ; preds = %27, %1
  %33 = phi i1 [ false, %1 ], [ %31, %27 ]
  %34 = zext i1 %33 to i32
  %35 = load ptr, ptr %2, align 8, !tbaa !9
  %36 = getelementptr inbounds nuw %struct.IDAMemRec, ptr %35, i32 0, i32 179
  store i32 %34, ptr %36, align 8, !tbaa !47
  %37 = load ptr, ptr %3, align 8, !tbaa !31
  %38 = getelementptr inbounds nuw %struct.IDASpilsMemRec, ptr %37, i32 0, i32 32
  %39 = load i32, ptr %38, align 8, !tbaa !36
  %40 = icmp ne i32 %39, 0
  br i1 %40, label %41, label %47

41:                                               ; preds = %32
  %42 = load ptr, ptr %3, align 8, !tbaa !31
  %43 = getelementptr inbounds nuw %struct.IDASpilsMemRec, ptr %42, i32 0, i32 33
  store ptr @IDASpilsDQJtimes, ptr %43, align 8, !tbaa !37
  %44 = load ptr, ptr %2, align 8, !tbaa !9
  %45 = load ptr, ptr %3, align 8, !tbaa !31
  %46 = getelementptr inbounds nuw %struct.IDASpilsMemRec, ptr %45, i32 0, i32 34
  store ptr %44, ptr %46, align 8, !tbaa !38
  br label %53

47:                                               ; preds = %32
  %48 = load ptr, ptr %2, align 8, !tbaa !9
  %49 = getelementptr inbounds nuw %struct.IDAMemRec, ptr %48, i32 0, i32 2
  %50 = load ptr, ptr %49, align 8, !tbaa !42
  %51 = load ptr, ptr %3, align 8, !tbaa !31
  %52 = getelementptr inbounds nuw %struct.IDASpilsMemRec, ptr %51, i32 0, i32 34
  store ptr %50, ptr %52, align 8, !tbaa !38
  br label %53

53:                                               ; preds = %47, %41
  %54 = load ptr, ptr %3, align 8, !tbaa !31
  %55 = getelementptr inbounds nuw %struct.IDASpilsMemRec, ptr %54, i32 0, i32 3
  %56 = load i32, ptr %55, align 8, !tbaa !35
  %57 = load ptr, ptr %4, align 8, !tbaa !3
  %58 = getelementptr inbounds nuw %struct.SptfqmrMemRec, ptr %57, i32 0, i32 0
  store i32 %56, ptr %58, align 8, !tbaa !60
  %59 = load ptr, ptr %3, align 8, !tbaa !31
  %60 = getelementptr inbounds nuw %struct.IDASpilsMemRec, ptr %59, i32 0, i32 27
  store i64 0, ptr %60, align 8, !tbaa !46
  call void @llvm.lifetime.end.p0(i64 8, ptr %4) #5
  call void @llvm.lifetime.end.p0(i64 8, ptr %3) #5
  ret i32 0
}